target datalayout = "e-m:e-p270:32:32-p271:32:32-p272:64:64-i64:64-i128:128-f80:128-n8:16:32:64-S128"
target triple = "x86_64-pc-linux-gnu"

%"class.OpenColorIO_v2_5dev::MatrixTransformImpl" = type { %"class.OpenColorIO_v2_5dev::MatrixTransform", %"class.OpenColorIO_v2_5dev::MatrixOpData" }
%"class.OpenColorIO_v2_5dev::MatrixTransform" = type { %"class.OpenColorIO_v2_5dev::Transform" }
%"class.OpenColorIO_v2_5dev::Transform" = type { ptr }
%"class.OpenColorIO_v2_5dev::MatrixOpData" = type <{ %"class.OpenColorIO_v2_5dev::OpData", %"class.OpenColorIO_v2_5dev::MatrixOpData::MatrixArray", %"class.OpenColorIO_v2_5dev::MatrixOpData::Offsets", i32, i32, i32, [4 x i8] }>
%"class.OpenColorIO_v2_5dev::OpData" = type { ptr, %"class.std::mutex", %"class.OpenColorIO_v2_5dev::FormatMetadataImpl" }
%"class.std::mutex" = type { %"class.std::__mutex_base" }
%"class.std::__mutex_base" = type { %union.pthread_mutex_t }
%union.pthread_mutex_t = type { %struct.__pthread_mutex_s }
%struct.__pthread_mutex_s = type { i32, i32, i32, i32, i32, i16, i16, %struct.__pthread_internal_list }
%struct.__pthread_internal_list = type { ptr, ptr }
%"class.OpenColorIO_v2_5dev::FormatMetadataImpl" = type { %"class.OpenColorIO_v2_5dev::FormatMetadata", %"class.std::__cxx11::basic_string", %"class.std::__cxx11::basic_string", %"class.std::vector", %"class.std::vector.3" }
%"class.OpenColorIO_v2_5dev::FormatMetadata" = type { ptr }
%"class.std::__cxx11::basic_string" = type { %"struct.std::__cxx11::basic_string<char>::_Alloc_hider", i64, %union.anon }
%"struct.std::__cxx11::basic_string<char>::_Alloc_hider" = type { ptr }
%union.anon = type { i64, [8 x i8] }
%"class.std::vector" = type { %"struct.std::_Vector_base" }
%"struct.std::_Vector_base" = type { %"struct.std::_Vector_base<std::pair<std::__cxx11::basic_string<char>, std::__cxx11::basic_string<char>>, std::allocator<std::pair<std::__cxx11::basic_string<char>, std::__cxx11::basic_string<char>>>>::_Vector_impl" }
%"struct.std::_Vector_base<std::pair<std::__cxx11::basic_string<char>, std::__cxx11::basic_string<char>>, std::allocator<std::pair<std::__cxx11::basic_string<char>, std::__cxx11::basic_string<char>>>>::_Vector_impl" = type { %"struct.std::_Vector_base<std::pair<std::__cxx11::basic_string<char>, std::__cxx11::basic_string<char>>, std::allocator<std::pair<std::__cxx11::basic_string<char>, std::__cxx11::basic_string<char>>>>::_Vector_impl_data" }
%"struct.std::_Vector_base<std::pair<std::__cxx11::basic_string<char>, std::__cxx11::basic_string<char>>, std::allocator<std::pair<std::__cxx11::basic_string<char>, std::__cxx11::basic_string<char>>>>::_Vector_impl_data" = type { ptr, ptr, ptr }
%"class.std::vector.3" = type { %"struct.std::_Vector_base.4" }
%"struct.std::_Vector_base.4" = type { %"struct.std::_Vector_base<OpenColorIO_v2_5dev::FormatMetadataImpl, std::allocator<OpenColorIO_v2_5dev::FormatMetadataImpl>>::_Vector_impl" }
%"struct.std::_Vector_base<OpenColorIO_v2_5dev::FormatMetadataImpl, std::allocator<OpenColorIO_v2_5dev::FormatMetadataImpl>>::_Vector_impl" = type { %"struct.std::_Vector_base<OpenColorIO_v2_5dev::FormatMetadataImpl, std::allocator<OpenColorIO_v2_5dev::FormatMetadataImpl>>::_Vector_impl_data" }
%"struct.std::_Vector_base<OpenColorIO_v2_5dev::FormatMetadataImpl, std::allocator<OpenColorIO_v2_5dev::FormatMetadataImpl>>::_Vector_impl_data" = type { ptr, ptr, ptr }
%"class.OpenColorIO_v2_5dev::MatrixOpData::MatrixArray" = type { %"class.OpenColorIO_v2_5dev::ArrayT" }
%"class.OpenColorIO_v2_5dev::ArrayT" = type { %"class.OpenColorIO_v2_5dev::ArrayBase", i64, i64, %"class.std::vector.8" }
%"class.OpenColorIO_v2_5dev::ArrayBase" = type { ptr }
%"class.std::vector.8" = type { %"struct.std::_Vector_base.9" }
%"struct.std::_Vector_base.9" = type { %"struct.std::_Vector_base<double, std::allocator<double>>::_Vector_impl" }
%"struct.std::_Vector_base<double, std::allocator<double>>::_Vector_impl" = type { %"struct.std::_Vector_base<double, std::allocator<double>>::_Vector_impl_data" }
%"struct.std::_Vector_base<double, std::allocator<double>>::_Vector_impl_data" = type { ptr, ptr, ptr }
%"class.OpenColorIO_v2_5dev::MatrixOpData::Offsets" = type { [4 x double] }

@_ZTIN19OpenColorIO_v2_5dev15MatrixTransformE = linkonce_odr constant { ptr, ptr, ptr } { ptr getelementptr inbounds (ptr, ptr @_ZTVN10__cxxabiv120__si_class_type_infoE, i64 2), ptr @_ZTSN19OpenColorIO_v2_5dev15MatrixTransformE, ptr @_ZTIN19OpenColorIO_v2_5dev9TransformE }, comdat, align 8
@_ZTIN19OpenColorIO_v2_5dev19MatrixTransformImplE = hidden constant { ptr, ptr, ptr } { ptr getelementptr inbounds (ptr, ptr @_ZTVN10__cxxabiv120__si_class_type_infoE, i64 2), ptr @_ZTSN19OpenColorIO_v2_5dev19MatrixTransformImplE, ptr @_ZTIN19OpenColorIO_v2_5dev15MatrixTransformE }, align 8

; Function Attrs: mustprogress nounwind uwtable
define linkonce_odr hidden noundef nonnull align 8 dereferenceable(260) ptr @_ZNK19OpenColorIO_v2_5dev19MatrixTransformImpl4dataEv(ptr noundef nonnull align 8 dereferenceable(272) %0) #8 comdat align 2 {
  %2 = alloca ptr, align 8
  store ptr %0, ptr %2, align 8, !tbaa !3
  %3 = load ptr, ptr %2, align 8
  %4 = getelementptr inbounds nuw %"class.OpenColorIO_v2_5dev::MatrixTransformImpl", ptr %3, i32 0, i32 1
  ret ptr %4
}

; Function Attrs: mustprogress nounwind uwtable
define hidden noundef zeroext i1 @_ZNK19OpenColorIO_v2_5dev19MatrixTransformImpl6equalsERKNS_15MatrixTransformE(ptr noundef nonnull align 8 dereferenceable(272) %0, ptr noundef nonnull align 8 dereferenceable(8) %1) unnamed_addr #8 align 2 personality ptr @__gxx_personality_v0 {
  %3 = alloca i1, align 1
  %4 = alloca ptr, align 8
  %5 = alloca ptr, align 8
  store ptr %0, ptr %4, align 8, !tbaa !3
  store ptr %1, ptr %5, align 8, !tbaa !10
  %6 = load ptr, ptr %4, align 8
  %7 = load ptr, ptr %5, align 8, !tbaa !10
  %8 = icmp eq ptr %6, %7
  br i1 %8, label %9, label %10

9:                                                ; preds = %2
  store i1 true, ptr %3, align 1
  br label %22

10:                                               ; preds = %2
  %11 = call noundef nonnull align 8 dereferenceable(260) ptr @_ZNK19OpenColorIO_v2_5dev19MatrixTransformImpl4dataEv(ptr noundef nonnull align 8 dereferenceable(272) %6) #3
  %12 = load ptr, ptr %5, align 8, !tbaa !10
  %13 = icmp eq ptr %12, null
  br i1 %13, label %16, label %14

14:                                               ; preds = %10
  %15 = call ptr @__dynamic_cast(ptr %12, ptr @_ZTIN19OpenColorIO_v2_5dev15MatrixTransformE, ptr @_ZTIN19OpenColorIO_v2_5dev19MatrixTransformImplE, i64 0) #3
  br label %17

16:                                               ; preds = %10
  br label %17

17:                                               ; preds = %16, %14
  %18 = phi ptr [ %15, %14 ], [ null, %16 ]
  %19 = call noundef nonnull align 8 dereferenceable(260) ptr @_ZNK19OpenColorIO_v2_5dev19MatrixTransformImpl4dataEv(ptr noundef nonnull align 8 dereferenceable(272) %18) #3
  %20 = invoke noundef zeroext i1 @_ZN19OpenColorIO_v2_5deveqERKNS_12MatrixOpDataES2_(ptr noundef nonnull align 8 dereferenceable(260) %11, ptr noundef nonnull align 8 dereferenceable(260) %19)
          to label %21 unwind label %24

21:                                               ; preds = %17
  store i1 %20, ptr %3, align 1
  br label %22

22:                                               ; preds = %21, %9
  %23 = load i1, ptr %3, align 1
  ret i1 %23

24:                                               ; preds = %17
  %25 = landingpad { ptr, i32 }
          catch ptr null
  %26 = extractvalue { ptr, i32 } %25, 0
  call void @__clang_call_terminate(ptr %26) #26
  unreachable
}